target datalayout = "e-m:e-p270:32:32-p271:32:32-p272:64:64-i64:64-i128:128-f80:128-n8:16:32:64-S128"
target triple = "x86_64-pc-linux-gnu"

@.str.3 = private unnamed_addr constant [5 x i8] c"ttcf\00", align 1

; Function Attrs: nounwind uwtable
define i32 @ttLONG(ptr noundef %0) #0 {
  %2 = alloca ptr, align 8
  store ptr %0, ptr %2, align 8, !tbaa !25
  %3 = load ptr, ptr %2, align 8, !tbaa !25
  %4 = getelementptr inbounds i8, ptr %3, i64 0
  %5 = load i8, ptr %4, align 1, !tbaa !13
  %6 = zext i8 %5 to i32
  %7 = shl i32 %6, 24
  %8 = load ptr, ptr %2, align 8, !tbaa !25
  %9 = getelementptr inbounds i8, ptr %8, i64 1
  %10 = load i8, ptr %9, align 1, !tbaa !13
  %11 = zext i8 %10 to i32
  %12 = shl i32 %11, 16
  %13 = add nsw i32 %7, %12
  %14 = load ptr, ptr %2, align 8, !tbaa !25
  %15 = getelementptr inbounds i8, ptr %14, i64 2
  %16 = load i8, ptr %15, align 1, !tbaa !13
  %17 = zext i8 %16 to i32
  %18 = shl i32 %17, 8
  %19 = add nsw i32 %13, %18
  %20 = load ptr, ptr %2, align 8, !tbaa !25
  %21 = getelementptr inbounds i8, ptr %20, i64 3
  %22 = load i8, ptr %21, align 1, !tbaa !13
  %23 = zext i8 %22 to i32
  %24 = add nsw i32 %19, %23
  ret i32 %24
}

; Function Attrs: nounwind uwtable
define i32 @ttULONG(ptr noundef %0) #0 {
  %2 = alloca ptr, align 8
  store ptr %0, ptr %2, align 8, !tbaa !25
  %3 = load ptr, ptr %2, align 8, !tbaa !25
  %4 = getelementptr inbounds i8, ptr %3, i64 0
  %5 = load i8, ptr %4, align 1, !tbaa !13
  %6 = zext i8 %5 to i32
  %7 = shl i32 %6, 24
  %8 = load ptr, ptr %2, align 8, !tbaa !25
  %9 = getelementptr inbounds i8, ptr %8, i64 1
  %10 = load i8, ptr %9, align 1, !tbaa !13
  %11 = zext i8 %10 to i32
  %12 = shl i32 %11, 16
  %13 = add nsw i32 %7, %12
  %14 = load ptr, ptr %2, align 8, !tbaa !25
  %15 = getelementptr inbounds i8, ptr %14, i64 2
  %16 = load i8, ptr %15, align 1, !tbaa !13
  %17 = zext i8 %16 to i32
  %18 = shl i32 %17, 8
  %19 = add nsw i32 %13, %18
  %20 = load ptr, ptr %2, align 8, !tbaa !25
  %21 = getelementptr inbounds i8, ptr %20, i64 3
  %22 = load i8, ptr %21, align 1, !tbaa !13
  %23 = zext i8 %22 to i32
  %24 = add nsw i32 %19, %23
  ret i32 %24
}

; Function Attrs: nounwind uwtable
define i32 @stbtt_GetNumberOfFonts_internal(ptr noundef %0) #0 {
  %2 = alloca i32, align 4
  %3 = alloca ptr, align 8
  store ptr %0, ptr %3, align 8, !tbaa !25
  %4 = load ptr, ptr %3, align 8, !tbaa !25
  %5 = call i32 @stbtt__isfont(ptr noundef %4)
  %6 = icmp ne i32 %5, 0
  br i1 %6, label %7, label %8

7:                                                ; preds = %1
  store i32 1, ptr %2, align 4
  br label %56

8:                                                ; preds = %1
  %9 = load ptr, ptr %3, align 8, !tbaa !25
  %10 = getelementptr inbounds i8, ptr %9, i64 0
  %11 = load i8, ptr %10, align 1, !tbaa !13
  %12 = zext i8 %11 to i32
  %13 = load i8, ptr @.str.3, align 1, !tbaa !13
  %14 = sext i8 %13 to i32
  %15 = icmp eq i32 %12, %14
  br i1 %15, label %16, label %55

16:                                               ; preds = %8
  %17 = load ptr, ptr %3, align 8, !tbaa !25
  %18 = getelementptr inbounds i8, ptr %17, i64 1
  %19 = load i8, ptr %18, align 1, !tbaa !13
  %20 = zext i8 %19 to i32
  %21 = load i8, ptr getelementptr inbounds ([5 x i8], ptr @.str.3, i64 0, i64 1), align 1, !tbaa !13
  %22 = sext i8 %21 to i32
  %23 = icmp eq i32 %20, %22
  br i1 %23, label %24, label %55

24:                                               ; preds = %16
  %25 = load ptr, ptr %3, align 8, !tbaa !25
  %26 = getelementptr inbounds i8, ptr %25, i64 2
  %27 = load i8, ptr %26, align 1, !tbaa !13
  %28 = zext i8 %27 to i32
  %29 = load i8, ptr getelementptr inbounds ([5 x i8], ptr @.str.3, i64 0, i64 2), align 1, !tbaa !13
  %30 = sext i8 %29 to i32
  %31 = icmp eq i32 %28, %30
  br i1 %31, label %32, label %55

32:                                               ; preds = %24
  %33 = load ptr, ptr %3, align 8, !tbaa !25
  %34 = getelementptr inbounds i8, ptr %33, i64 3
  %35 = load i8, ptr %34, align 1, !tbaa !13
  %36 = zext i8 %35 to i32
  %37 = load i8, ptr getelementptr inbounds ([5 x i8], ptr @.str.3, i64 0, i64 3), align 1, !tbaa !13
  %38 = sext i8 %37 to i32
  %39 = icmp eq i32 %36, %38
  br i1 %39, label %40, label %55

40:                                               ; preds = %32
  %41 = load ptr, ptr %3, align 8, !tbaa !25
  %42 = getelementptr inbounds i8, ptr %41, i64 4
  %43 = call i32 @ttULONG(ptr noundef %42)
  %44 = icmp eq i32 %43, 65536
  br i1 %44, label %50, label %45

45:                                               ; preds = %40
  %46 = load ptr, ptr %3, align 8, !tbaa !25
  %47 = getelementptr inbounds i8, ptr %46, i64 4
  %48 = call i32 @ttULONG(ptr noundef %47)
  %49 = icmp eq i32 %48, 131072
  br i1 %49, label %50, label %54

50:                                               ; preds = %45, %40
  %51 = load ptr, ptr %3, align 8, !tbaa !25
  %52 = getelementptr inbounds i8, ptr %51, i64 8
  %53 = call i32 @ttLONG(ptr noundef %52)
  store i32 %53, ptr %2, align 4
  br label %56

54:                                               ; preds = %45
  br label %55

55:                                               ; preds = %54, %32, %24, %16, %8
  store i32 0, ptr %2, align 4
  br label %56

56:                                               ; preds = %55, %50, %7
  %57 = load i32, ptr %2, align 4
  ret i32 %57
}