; Function Attrs: mustprogress nofree norecurse nosync nounwind willreturn memory(argmem: read) uwtable
define i32 @stbtt_GetNumberOfFonts_internal(ptr noundef readonly captures(none) %0) local_unnamed_addr #6 {
  %2 = tail call i32 @stbtt__isfont(ptr noundef %0)
  %.not = icmp eq i32 %2, 0
  br i1 %.not, label %3, label %56

3:                                                ; preds = %1
  %4 = load i8, ptr %0, align 1, !tbaa !12
  %5 = icmp eq i8 %4, 116
  br i1 %5, label %6, label %56

6:                                                ; preds = %3
  %7 = getelementptr inbounds nuw i8, ptr %0, i64 1
  %8 = load i8, ptr %7, align 1, !tbaa !12
  %9 = icmp eq i8 %8, 116
  br i1 %9, label %10, label %56

10:                                               ; preds = %6
  %11 = getelementptr inbounds nuw i8, ptr %0, i64 2
  %12 = load i8, ptr %11, align 1, !tbaa !12
  %13 = icmp eq i8 %12, 99
  br i1 %13, label %14, label %56

14:                                               ; preds = %10
  %15 = getelementptr inbounds nuw i8, ptr %0, i64 3
  %16 = load i8, ptr %15, align 1, !tbaa !12
  %17 = icmp eq i8 %16, 102
  br i1 %17, label %18, label %56

18:                                               ; preds = %14
  %19 = getelementptr inbounds nuw i8, ptr %0, i64 4
  %20 = load i8, ptr %19, align 1, !tbaa !12
  %21 = zext i8 %20 to i32
  %22 = shl nuw i32 %21, 24
  %23 = getelementptr inbounds nuw i8, ptr %0, i64 5
  %24 = load i8, ptr %23, align 1, !tbaa !12
  %25 = zext i8 %24 to i32
  %26 = shl nuw nsw i32 %25, 16
  %27 = or disjoint i32 %26, %22
  %28 = getelementptr inbounds nuw i8, ptr %0, i64 6
  %29 = load i8, ptr %28, align 1, !tbaa !12
  %30 = zext i8 %29 to i32
  %31 = shl nuw nsw i32 %30, 8
  %32 = or disjoint i32 %27, %31
  %33 = getelementptr inbounds nuw i8, ptr %0, i64 7
  %34 = load i8, ptr %33, align 1, !tbaa !12
  %35 = zext i8 %34 to i32
  %36 = or disjoint i32 %32, %35
  switch i32 %36, label %56 [
    i32 65536, label %37
    i32 131072, label %37
  ]

37:                                               ; preds = %18, %18
  %38 = getelementptr inbounds nuw i8, ptr %0, i64 8
  %39 = load i8, ptr %38, align 1, !tbaa !12
  %40 = zext i8 %39 to i32
  %41 = shl nuw i32 %40, 24
  %42 = getelementptr inbounds nuw i8, ptr %0, i64 9
  %43 = load i8, ptr %42, align 1, !tbaa !12
  %44 = zext i8 %43 to i32
  %45 = shl nuw nsw i32 %44, 16
  %46 = or disjoint i32 %45, %41
  %47 = getelementptr inbounds nuw i8, ptr %0, i64 10
  %48 = load i8, ptr %47, align 1, !tbaa !12
  %49 = zext i8 %48 to i32
  %50 = shl nuw nsw i32 %49, 8
  %51 = or disjoint i32 %46, %50
  %52 = getelementptr inbounds nuw i8, ptr %0, i64 11
  %53 = load i8, ptr %52, align 1, !tbaa !12
  %54 = zext i8 %53 to i32
  %55 = or disjoint i32 %51, %54
  br label %56

56:                                               ; preds = %18, %3, %6, %10, %14, %1, %37
  %.0 = phi i32 [ %55, %37 ], [ 1, %1 ], [ 0, %14 ], [ 0, %10 ], [ 0, %6 ], [ 0, %3 ], [ 0, %18 ]
  ret i32 %.0
}